; Function Attrs: mustprogress noreturn uwtable
define void @_ZN8facebook3jsi10HostObject3setERNS0_7RuntimeERKNS0_10PropNameIDERKNS0_5ValueE(ptr nocapture nonnull readnone align 8 %this, ptr noundef nonnull align 8 dereferenceable(8) %rt, ptr noundef nonnull align 8 dereferenceable(8) %name, ptr nocapture nonnull readnone align 8 %0) unnamed_addr #4 align 2 personality ptr @__gxx_personality_v0 {
entry:
  %msg = alloca %"class.std::__cxx11::basic_string", align 8
  %ref.tmp = alloca %"class.std::allocator", align 1
  %ref.tmp2 = alloca %"class.std::__cxx11::basic_string", align 8
  %agg.tmp = alloca %"class.std::__cxx11::basic_string", align 8
  call void @_ZNSaIcEC1Ev(ptr noundef nonnull align 1 dereferenceable(1) %ref.tmp) #23
  invoke void @_ZNSt7__cxx1112basic_stringIcSt11char_traitsIcESaIcEEC1EPKcRKS3_(ptr noundef nonnull align 8 dereferenceable(32) %msg, ptr noundef nonnull @.str, ptr noundef nonnull align 1 dereferenceable(1) %ref.tmp)
          to label %invoke.cont unwind label %lpad

invoke.cont:                                      ; preds = %entry
  call void @_ZNSaIcED1Ev(ptr noundef nonnull align 1 dereferenceable(1) %ref.tmp) #23
  %vtable.i = load ptr, ptr %rt, align 8, !noalias !4
  %vfn.i = getelementptr inbounds i8, ptr %vtable.i, i64 152
  %1 = load ptr, ptr %vfn.i, align 8, !noalias !4
  invoke void %1(ptr nonnull sret(%"class.std::__cxx11::basic_string") align 8 %ref.tmp2, ptr noundef nonnull align 8 dereferenceable(8) %rt, ptr noundef nonnull align 8 dereferenceable(8) %name)
          to label %invoke.cont4 unwind label %lpad3

invoke.cont4:                                     ; preds = %invoke.cont
  %call = invoke noundef nonnull align 8 dereferenceable(32) ptr @_ZNSt7__cxx1112basic_stringIcSt11char_traitsIcESaIcEEpLERKS4_(ptr noundef nonnull align 8 dereferenceable(32) %msg, ptr noundef nonnull align 8 dereferenceable(32) %ref.tmp2)
          to label %invoke.cont6 unwind label %lpad5

invoke.cont6:                                     ; preds = %invoke.cont4
  call void @_ZNSt7__cxx1112basic_stringIcSt11char_traitsIcESaIcEED1Ev(ptr noundef nonnull align 8 dereferenceable(32) %ref.tmp2) #23
  %call8 = invoke noundef nonnull align 8 dereferenceable(32) ptr @_ZNSt7__cxx1112basic_stringIcSt11char_traitsIcESaIcEEpLEPKc(ptr noundef nonnull align 8 dereferenceable(32) %msg, ptr noundef nonnull @.str.1)
          to label %invoke.cont7 unwind label %lpad3

invoke.cont7:                                     ; preds = %invoke.cont6
  %exception = call ptr @__cxa_allocate_exception(i64 120) #23
  invoke void @_ZNSt7__cxx1112basic_stringIcSt11char_traitsIcESaIcEEC1ERKS4_(ptr noundef nonnull align 8 dereferenceable(32) %agg.tmp, ptr noundef nonnull align 8 dereferenceable(32) %msg)
          to label %invoke.cont10 unwind label %ehcleanup.thread

invoke.cont10:                                    ; preds = %invoke.cont7
  invoke void @_ZN8facebook3jsi7JSErrorC1ERNS0_7RuntimeENSt7__cxx1112basic_stringIcSt11char_traitsIcESaIcEEE(ptr noundef nonnull align 8 dereferenceable(120) %exception, ptr noundef nonnull align 8 dereferenceable(8) %rt, ptr noundef nonnull %agg.tmp)
          to label %invoke.cont12 unwind label %ehcleanup.thread8

ehcleanup.thread8:                                ; preds = %invoke.cont10
  %2 = landingpad { ptr, i32 }
          cleanup
  call void @_ZNSt7__cxx1112basic_stringIcSt11char_traitsIcESaIcEED1Ev(ptr noundef nonnull align 8 dereferenceable(32) %agg.tmp) #23
  br label %cleanup.action

invoke.cont12:                                    ; preds = %invoke.cont10
  invoke void @__cxa_throw(ptr %exception, ptr nonnull @_ZTIN8facebook3jsi7JSErrorE, ptr nonnull @_ZN8facebook3jsi7JSErrorD1Ev) #24
          to label %unreachable unwind label %ehcleanup

lpad:                                             ; preds = %entry
  %3 = landingpad { ptr, i32 }
          cleanup
  call void @_ZNSaIcED1Ev(ptr noundef nonnull align 1 dereferenceable(1) %ref.tmp) #23
  br label %eh.resume

lpad3:                                            ; preds = %invoke.cont, %invoke.cont6
  %4 = landingpad { ptr, i32 }
          cleanup
  br label %ehcleanup13

lpad5:                                            ; preds = %invoke.cont4
  %5 = landingpad { ptr, i32 }
          cleanup
  call void @_ZNSt7__cxx1112basic_stringIcSt11char_traitsIcESaIcEED1Ev(ptr noundef nonnull align 8 dereferenceable(32) %ref.tmp2) #23
  br label %ehcleanup13

ehcleanup.thread:                                 ; preds = %invoke.cont7
  %6 = landingpad { ptr, i32 }
          cleanup
  br label %cleanup.action

ehcleanup:                                        ; preds = %invoke.cont12
  %7 = landingpad { ptr, i32 }
          cleanup
  call void @_ZNSt7__cxx1112basic_stringIcSt11char_traitsIcESaIcEED1Ev(ptr noundef nonnull align 8 dereferenceable(32) %agg.tmp) #23
  br label %ehcleanup13

cleanup.action:                                   ; preds = %ehcleanup.thread8, %ehcleanup.thread
  %.pn7 = phi { ptr, i32 } [ %6, %ehcleanup.thread ], [ %2, %ehcleanup.thread8 ]
  call void @__cxa_free_exception(ptr %exception) #23
  br label %ehcleanup13

ehcleanup13:                                      ; preds = %ehcleanup, %cleanup.action, %lpad5, %lpad3
  %.pn.pn = phi { ptr, i32 } [ %.pn7, %cleanup.action ], [ %7, %ehcleanup ], [ %4, %lpad3 ], [ %5, %lpad5 ]
  call void @_ZNSt7__cxx1112basic_stringIcSt11char_traitsIcESaIcEED1Ev(ptr noundef nonnull align 8 dereferenceable(32) %msg) #23
  br label %eh.resume

eh.resume:                                        ; preds = %ehcleanup13, %lpad
  %.pn.pn.pn = phi { ptr, i32 } [ %.pn.pn, %ehcleanup13 ], [ %3, %lpad ]
  resume { ptr, i32 } %.pn.pn.pn

unreachable:                                      ; preds = %invoke.cont12
  unreachable
}